target datalayout = "e-m:e-p270:32:32-p271:32:32-p272:64:64-i64:64-i128:128-f80:128-n8:16:32:64-S128"
target triple = "x86_64-pc-linux-gnu"

%struct.wg_qqword = type { [32 x i8] }
%struct._GHashTableIter = type { ptr, ptr, ptr, i32, i32, ptr }
%struct.wg_skey = type { %struct.wg_qqword, %struct.wg_qqword, %struct.wg_qqword }

@.str.105 = private unnamed_addr constant [55 x i8] c"%s:%u: failed assertion \22DISSECTOR_ASSERT_NOT_REACHED\22\00", align 1
@.str.106 = private unnamed_addr constant [35 x i8] c"epan/dissectors/packet-wireguard.c\00", align 1
@wg_static_keys = internal global ptr null, align 8
@.str.109 = private unnamed_addr constant [29 x i8] c"%s:%u: failed assertion \22%s\22\00", align 1
@.str.110 = private unnamed_addr constant [7 x i8] c"r == 0\00", align 1

; Function Attrs: null_pointer_is_valid sspstrong uwtable
define internal zeroext i1 @wg_mac_verify(ptr noundef %0, ptr noundef %1, i32 noundef %2, ptr noundef %3) #0 {
  %5 = alloca ptr, align 8
  %6 = alloca ptr, align 8
  %7 = alloca i32, align 4
  %8 = alloca ptr, align 8
  %9 = alloca i8, align 1
  %10 = alloca ptr, align 8
  %11 = alloca i32, align 4
  store ptr %0, ptr %5, align 8
  store ptr %1, ptr %6, align 8
  store i32 %2, ptr %7, align 4
  store ptr %3, ptr %8, align 8
  call void @llvm.lifetime.start.p0(i64 1, ptr %9) #19
  store i8 0, ptr %9, align 1
  call void @llvm.lifetime.start.p0(i64 8, ptr %10) #19
  %12 = call i32 @gcry_md_open(ptr noundef %10, i32 noundef 325, i32 noundef 0)
  %13 = icmp eq i32 %12, 0
  br i1 %13, label %14, label %37

14:                                               ; preds = %4
  call void @llvm.lifetime.start.p0(i64 4, ptr %11) #19
  %15 = load ptr, ptr %10, align 8
  %16 = load ptr, ptr %5, align 8
  %17 = getelementptr inbounds nuw %struct.wg_qqword, ptr %16, i32 0, i32 0
  %18 = getelementptr inbounds [32 x i8], ptr %17, i64 0, i64 0
  %19 = call i32 @gcry_md_setkey(ptr noundef %15, ptr noundef %18, i64 noundef 32)
  store i32 %19, ptr %11, align 4
  %20 = load i32, ptr %11, align 4
  %21 = icmp eq i32 %20, 0
  br i1 %21, label %22, label %23

22:                                               ; preds = %14
  br label %25

23:                                               ; preds = %14
  call void (ptr, ...) @proto_report_dissector_bug(ptr noundef @.str.109, ptr noundef @.str.106, i32 noundef 388, ptr noundef @.str.110) #22
  unreachable

24:                                               ; No predecessors!
  br label %25

25:                                               ; preds = %24, %22
  %26 = load ptr, ptr %10, align 8
  %27 = load ptr, ptr %6, align 8
  %28 = load i32, ptr %7, align 4
  %29 = zext i32 %28 to i64
  call void @gcry_md_write(ptr noundef %26, ptr noundef %27, i64 noundef %29)
  %30 = load ptr, ptr %8, align 8
  %31 = load ptr, ptr %10, align 8
  %32 = call ptr @gcry_md_read(ptr noundef %31, i32 noundef 0)
  %33 = call i32 @memcmp(ptr noundef %30, ptr noundef %32, i64 noundef 16) #20
  %34 = icmp eq i32 %33, 0
  %35 = zext i1 %34 to i8
  store i8 %35, ptr %9, align 1
  %36 = load ptr, ptr %10, align 8
  call void @gcry_md_close(ptr noundef %36)
  call void @llvm.lifetime.end.p0(i64 4, ptr %11) #19
  br label %38

37:                                               ; preds = %4
  call void (ptr, ...) @proto_report_dissector_bug(ptr noundef @.str.105, ptr noundef @.str.106, i32 noundef 394) #22
  unreachable

38:                                               ; preds = %25
  %39 = load i8, ptr %9, align 1, !range !6, !noundef !7
  %40 = trunc i8 %39 to i1
  call void @llvm.lifetime.end.p0(i64 8, ptr %10) #19
  call void @llvm.lifetime.end.p0(i64 1, ptr %9) #19
  ret i1 %40
}

; Function Attrs: null_pointer_is_valid sspstrong uwtable
define internal ptr @wg_mac1_key_probe(ptr noundef %0, i1 noundef zeroext %1) #0 {
  %3 = alloca ptr, align 8
  %4 = alloca ptr, align 8
  %5 = alloca i8, align 1
  %6 = alloca i32, align 4
  %7 = alloca i32, align 4
  %8 = alloca ptr, align 8
  %9 = alloca ptr, align 8
  %10 = alloca %struct._GHashTableIter, align 8
  %11 = alloca ptr, align 8
  %12 = alloca ptr, align 8
  store ptr %0, ptr %4, align 8
  %13 = zext i1 %1 to i8
  store i8 %13, ptr %5, align 1
  call void @llvm.lifetime.start.p0(i64 4, ptr %6) #19
  %14 = load i8, ptr %5, align 1, !range !6, !noundef !7
  %15 = trunc i8 %14 to i1
  %16 = select i1 %15, i32 116, i32 60
  store i32 %16, ptr %6, align 4
  %17 = load ptr, ptr @wg_static_keys, align 8
  %18 = icmp ne ptr %17, null
  br i1 %18, label %19, label %23

19:                                               ; preds = %2
  %20 = load ptr, ptr @wg_static_keys, align 8
  %21 = call i32 @g_hash_table_size(ptr noundef %20)
  %22 = icmp eq i32 %21, 0
  br i1 %22, label %23, label %24

23:                                               ; preds = %19, %2
  store ptr null, ptr %3, align 8
  store i32 1, ptr %7, align 4
  br label %59

24:                                               ; preds = %19
  call void @llvm.lifetime.start.p0(i64 8, ptr %8) #19
  %25 = call ptr @wmem_packet_scope()
  %26 = load ptr, ptr %4, align 8
  %27 = load i32, ptr %6, align 4
  %28 = sext i32 %27 to i64
  %29 = call ptr @tvb_memdup(ptr noundef %25, ptr noundef %26, i32 noundef 0, i64 noundef %28)
  store ptr %29, ptr %8, align 8
  call void @llvm.lifetime.start.p0(i64 8, ptr %9) #19
  %30 = load ptr, ptr %4, align 8
  %31 = load i32, ptr %6, align 4
  %32 = call ptr @tvb_get_ptr(ptr noundef %30, i32 noundef %31, i32 noundef 16)
  store ptr %32, ptr %9, align 8
  %33 = load ptr, ptr %8, align 8
  %34 = getelementptr i8, ptr %33, i64 3
  store i8 0, ptr %34, align 1
  %35 = load ptr, ptr %8, align 8
  %36 = getelementptr i8, ptr %35, i64 2
  store i8 0, ptr %36, align 1
  %37 = load ptr, ptr %8, align 8
  %38 = getelementptr i8, ptr %37, i64 1
  store i8 0, ptr %38, align 1
  call void @llvm.lifetime.start.p0(i64 40, ptr %10) #19
  call void @llvm.lifetime.start.p0(i64 8, ptr %11) #19
  %39 = load ptr, ptr @wg_static_keys, align 8
  call void @g_hash_table_iter_init(ptr noundef %10, ptr noundef %39)
  br label %40

40:                                               ; preds = %56, %24
  %41 = call i32 @g_hash_table_iter_next(ptr noundef %10, ptr noundef null, ptr noundef %11)
  %42 = icmp ne i32 %41, 0
  br i1 %42, label %43, label %57

43:                                               ; preds = %40
  call void @llvm.lifetime.start.p0(i64 8, ptr %12) #19
  %44 = load ptr, ptr %11, align 8
  store ptr %44, ptr %12, align 8
  %45 = load ptr, ptr %12, align 8
  %46 = getelementptr inbounds nuw %struct.wg_skey, ptr %45, i32 0, i32 1
  %47 = load ptr, ptr %8, align 8
  %48 = load i32, ptr %6, align 4
  %49 = load ptr, ptr %9, align 8
  %50 = call zeroext i1 @wg_mac_verify(ptr noundef %46, ptr noundef %47, i32 noundef %48, ptr noundef %49)
  br i1 %50, label %51, label %53

51:                                               ; preds = %43
  %52 = load ptr, ptr %12, align 8
  store ptr %52, ptr %3, align 8
  store i32 1, ptr %7, align 4
  br label %54

53:                                               ; preds = %43
  store i32 0, ptr %7, align 4
  br label %54

54:                                               ; preds = %53, %51
  call void @llvm.lifetime.end.p0(i64 8, ptr %12) #19
  %55 = load i32, ptr %7, align 4
  switch i32 %55, label %58 [
    i32 0, label %56
  ]

56:                                               ; preds = %54
  br label %40, !llvm.loop !16

57:                                               ; preds = %40
  store ptr null, ptr %3, align 8
  store i32 1, ptr %7, align 4
  br label %58

58:                                               ; preds = %57, %54
  call void @llvm.lifetime.end.p0(i64 8, ptr %11) #19
  call void @llvm.lifetime.end.p0(i64 40, ptr %10) #19
  call void @llvm.lifetime.end.p0(i64 8, ptr %9) #19
  call void @llvm.lifetime.end.p0(i64 8, ptr %8) #19
  br label %59

59:                                               ; preds = %58, %23
  call void @llvm.lifetime.end.p0(i64 4, ptr %6) #19
  %60 = load ptr, ptr %3, align 8
  ret ptr %60
}