; Function Attrs: null_pointer_is_valid sspstrong uwtable
define internal fastcc ptr @wg_mac1_key_probe(ptr noundef %0, i1 noundef zeroext %1) unnamed_addr #0 {
  %3 = alloca ptr, align 8
  %4 = alloca %struct._GHashTableIter, align 8
  %5 = alloca ptr, align 8
  %6 = select i1 %1, i32 116, i32 60
  %7 = load ptr, ptr @wg_static_keys, align 8
  %.not = icmp eq ptr %7, null
  br i1 %.not, label %39, label %8

8:                                                ; preds = %2
  %9 = tail call i32 @g_hash_table_size(ptr noundef nonnull %7)
  %10 = icmp eq i32 %9, 0
  br i1 %10, label %39, label %11

11:                                               ; preds = %8
  %12 = tail call ptr @wmem_packet_scope()
  %13 = zext nneg i32 %6 to i64
  %14 = tail call ptr @tvb_memdup(ptr noundef %12, ptr noundef %0, i32 noundef 0, i64 noundef %13)
  %15 = tail call ptr @tvb_get_ptr(ptr noundef %0, i32 noundef %6, i32 noundef 16)
  %16 = getelementptr i8, ptr %14, i64 3
  store i8 0, ptr %16, align 1
  %17 = getelementptr i8, ptr %14, i64 2
  store i8 0, ptr %17, align 1
  %18 = getelementptr i8, ptr %14, i64 1
  store i8 0, ptr %18, align 1
  call void @llvm.lifetime.start.p0(i64 40, ptr nonnull %4) #18
  call void @llvm.lifetime.start.p0(i64 8, ptr nonnull %5) #18
  %19 = load ptr, ptr @wg_static_keys, align 8
  call void @g_hash_table_iter_init(ptr noundef nonnull %4, ptr noundef %19)
  br label %20

20:                                               ; preds = %wg_mac_verify.exit, %11
  %21 = call i32 @g_hash_table_iter_next(ptr noundef nonnull %4, ptr noundef null, ptr noundef nonnull %5)
  %.not16 = icmp eq i32 %21, 0
  br i1 %.not16, label %38, label %22

22:                                               ; preds = %20
  %23 = load ptr, ptr %5, align 8
  call void @llvm.lifetime.start.p0(i64 8, ptr nonnull %3) #18
  %24 = call i32 @gcry_md_open(ptr noundef nonnull %3, i32 noundef 325, i32 noundef 0)
  %25 = icmp eq i32 %24, 0
  br i1 %25, label %26, label %32

26:                                               ; preds = %22
  %27 = getelementptr inbounds nuw i8, ptr %23, i64 32
  %28 = load ptr, ptr %3, align 8
  %29 = call i32 @gcry_md_setkey(ptr noundef %28, ptr noundef nonnull %27, i64 noundef 32)
  %30 = icmp eq i32 %29, 0
  br i1 %30, label %wg_mac_verify.exit, label %31

31:                                               ; preds = %26
  call void (ptr, ...) @proto_report_dissector_bug(ptr noundef nonnull @.str.109, ptr noundef nonnull @.str.106, i32 noundef 388, ptr noundef nonnull @.str.110) #21
  unreachable

32:                                               ; preds = %22
  call void (ptr, ...) @proto_report_dissector_bug(ptr noundef nonnull @.str.105, ptr noundef nonnull @.str.106, i32 noundef 394) #21
  unreachable

wg_mac_verify.exit:                               ; preds = %26
  %33 = load ptr, ptr %3, align 8
  call void @gcry_md_write(ptr noundef %33, ptr noundef %14, i64 noundef %13)
  %34 = load ptr, ptr %3, align 8
  %35 = call ptr @gcry_md_read(ptr noundef %34, i32 noundef 0)
  %bcmp.i = call i32 @bcmp(ptr noundef readonly dereferenceable(16) %15, ptr noundef dereferenceable(16) %35, i64 16)
  %36 = icmp eq i32 %bcmp.i, 0
  %37 = load ptr, ptr %3, align 8
  call void @gcry_md_close(ptr noundef %37)
  call void @llvm.lifetime.end.p0(i64 8, ptr nonnull %3) #18
  br i1 %36, label %38, label %20, !llvm.loop !27

38:                                               ; preds = %20, %wg_mac_verify.exit
  %.3 = phi ptr [ %23, %wg_mac_verify.exit ], [ null, %20 ]
  call void @llvm.lifetime.end.p0(i64 8, ptr nonnull %5) #18
  call void @llvm.lifetime.end.p0(i64 40, ptr nonnull %4) #18
  br label %39

39:                                               ; preds = %2, %8, %38
  %.0 = phi ptr [ %.3, %38 ], [ null, %8 ], [ null, %2 ]
  ret ptr %.0
}